target datalayout = "e-m:e-p270:32:32-p271:32:32-p272:64:64-i64:64-i128:128-f80:128-n8:16:32:64-S128"
target triple = "x86_64-pc-linux-gnu"

%"class.rocksdb::FileIndexer" = type { i64, ptr, %"class.rocksdb::autovector", ptr }
%"class.rocksdb::autovector" = type { i64, [128 x i8], ptr, %"class.std::vector.0" }
%"class.std::vector.0" = type { %"struct.std::_Vector_base.1" }
%"struct.std::_Vector_base.1" = type { %"struct.std::_Vector_base<rocksdb::FileIndexer::IndexLevel, std::allocator<rocksdb::FileIndexer::IndexLevel>>::_Vector_impl" }
%"struct.std::_Vector_base<rocksdb::FileIndexer::IndexLevel, std::allocator<rocksdb::FileIndexer::IndexLevel>>::_Vector_impl" = type { %"struct.std::_Vector_base<rocksdb::FileIndexer::IndexLevel, std::allocator<rocksdb::FileIndexer::IndexLevel>>::_Vector_impl_data" }
%"struct.std::_Vector_base<rocksdb::FileIndexer::IndexLevel, std::allocator<rocksdb::FileIndexer::IndexLevel>>::_Vector_impl_data" = type { ptr, ptr, ptr }
%"struct.rocksdb::FileIndexer::IndexLevel" = type { i64, ptr }

; Function Attrs: mustprogress nounwind uwtable
define linkonce_odr noundef nonnull align 8 dereferenceable(16) ptr @_ZNKSt6vectorIN7rocksdb11FileIndexer10IndexLevelESaIS2_EEixEm(ptr noundef nonnull align 8 dereferenceable(24) %0, i64 noundef %1) #4 comdat align 2 {
  %3 = alloca ptr, align 8
  %4 = alloca i64, align 8
  store ptr %0, ptr %3, align 8, !tbaa !111
  store i64 %1, ptr %4, align 8, !tbaa !4
  %5 = load ptr, ptr %3, align 8
  %6 = getelementptr inbounds nuw %"struct.std::_Vector_base.1", ptr %5, i32 0, i32 0
  %7 = getelementptr inbounds nuw %"struct.std::_Vector_base<rocksdb::FileIndexer::IndexLevel, std::allocator<rocksdb::FileIndexer::IndexLevel>>::_Vector_impl_data", ptr %6, i32 0, i32 0
  %8 = load ptr, ptr %7, align 8, !tbaa !121
  %9 = load i64, ptr %4, align 8, !tbaa !4
  %10 = getelementptr inbounds nuw %"struct.rocksdb::FileIndexer::IndexLevel", ptr %8, i64 %9
  ret ptr %10
}

; Function Attrs: mustprogress nounwind uwtable
define linkonce_odr noundef i64 @_ZNKSt6vectorIN7rocksdb11FileIndexer10IndexLevelESaIS2_EE4sizeEv(ptr noundef nonnull align 8 dereferenceable(24) %0) #4 comdat align 2 {
  %2 = alloca ptr, align 8
  store ptr %0, ptr %2, align 8, !tbaa !111
  %3 = load ptr, ptr %2, align 8
  %4 = getelementptr inbounds nuw %"struct.std::_Vector_base.1", ptr %3, i32 0, i32 0
  %5 = getelementptr inbounds nuw %"struct.std::_Vector_base<rocksdb::FileIndexer::IndexLevel, std::allocator<rocksdb::FileIndexer::IndexLevel>>::_Vector_impl_data", ptr %4, i32 0, i32 1
  %6 = load ptr, ptr %5, align 8, !tbaa !122
  %7 = getelementptr inbounds nuw %"struct.std::_Vector_base.1", ptr %3, i32 0, i32 0
  %8 = getelementptr inbounds nuw %"struct.std::_Vector_base<rocksdb::FileIndexer::IndexLevel, std::allocator<rocksdb::FileIndexer::IndexLevel>>::_Vector_impl_data", ptr %7, i32 0, i32 0
  %9 = load ptr, ptr %8, align 8, !tbaa !121
  %10 = ptrtoint ptr %6 to i64
  %11 = ptrtoint ptr %9 to i64
  %12 = sub i64 %10, %11
  %13 = sdiv exact i64 %12, 16
  ret i64 %13
}

; Function Attrs: mustprogress nounwind uwtable
define linkonce_odr noundef nonnull align 8 dereferenceable(16) ptr @_ZNK7rocksdb10autovectorINS_11FileIndexer10IndexLevelELm8EEixEm(ptr noundef nonnull align 8 dereferenceable(168) %0, i64 noundef %1) #4 comdat align 2 {
  %3 = alloca ptr, align 8
  %4 = alloca ptr, align 8
  %5 = alloca i64, align 8
  store ptr %0, ptr %4, align 8, !tbaa !37
  store i64 %1, ptr %5, align 8, !tbaa !4
  %6 = load ptr, ptr %4, align 8
  %7 = load i64, ptr %5, align 8, !tbaa !4
  %8 = icmp ult i64 %7, 8
  br i1 %8, label %9, label %14

9:                                                ; preds = %2
  %10 = getelementptr inbounds nuw %"class.rocksdb::autovector", ptr %6, i32 0, i32 2
  %11 = load ptr, ptr %10, align 8, !tbaa !40
  %12 = load i64, ptr %5, align 8, !tbaa !4
  %13 = getelementptr inbounds nuw %"struct.rocksdb::FileIndexer::IndexLevel", ptr %11, i64 %12
  store ptr %13, ptr %3, align 8
  br label %19

14:                                               ; preds = %2
  %15 = getelementptr inbounds nuw %"class.rocksdb::autovector", ptr %6, i32 0, i32 3
  %16 = load i64, ptr %5, align 8, !tbaa !4
  %17 = sub i64 %16, 8
  %18 = call noundef nonnull align 8 dereferenceable(16) ptr @_ZNKSt6vectorIN7rocksdb11FileIndexer10IndexLevelESaIS2_EEixEm(ptr noundef nonnull align 8 dereferenceable(24) %15, i64 noundef %17) #5
  store ptr %18, ptr %3, align 8
  br label %19

19:                                               ; preds = %14, %9
  %20 = load ptr, ptr %3, align 8
  ret ptr %20
}

; Function Attrs: mustprogress nounwind uwtable
define linkonce_odr noundef i64 @_ZNK7rocksdb10autovectorINS_11FileIndexer10IndexLevelELm8EE4sizeEv(ptr noundef nonnull align 8 dereferenceable(168) %0) #4 comdat align 2 {
  %2 = alloca ptr, align 8
  store ptr %0, ptr %2, align 8, !tbaa !37
  %3 = load ptr, ptr %2, align 8
  %4 = getelementptr inbounds nuw %"class.rocksdb::autovector", ptr %3, i32 0, i32 0
  %5 = load i64, ptr %4, align 8, !tbaa !39
  %6 = getelementptr inbounds nuw %"class.rocksdb::autovector", ptr %3, i32 0, i32 3
  %7 = call noundef i64 @_ZNKSt6vectorIN7rocksdb11FileIndexer10IndexLevelESaIS2_EE4sizeEv(ptr noundef nonnull align 8 dereferenceable(24) %6) #5
  %8 = add i64 %5, %7
  ret i64 %8
}

; Function Attrs: mustprogress uwtable
define noundef i64 @_ZNK7rocksdb11FileIndexer14LevelIndexSizeEm(ptr noundef nonnull align 8 dereferenceable(192) %0, i64 noundef %1) #6 align 2 {
  %3 = alloca i64, align 8
  %4 = alloca ptr, align 8
  %5 = alloca i64, align 8
  store ptr %0, ptr %4, align 8, !tbaa !22
  store i64 %1, ptr %5, align 8, !tbaa !4
  %6 = load ptr, ptr %4, align 8
  %7 = load i64, ptr %5, align 8, !tbaa !4
  %8 = getelementptr inbounds nuw %"class.rocksdb::FileIndexer", ptr %6, i32 0, i32 2
  %9 = call noundef i64 @_ZNK7rocksdb10autovectorINS_11FileIndexer10IndexLevelELm8EE4sizeEv(ptr noundef nonnull align 8 dereferenceable(168) %8)
  %10 = icmp uge i64 %7, %9
  br i1 %10, label %11, label %12

11:                                               ; preds = %2
  store i64 0, ptr %3, align 8
  br label %18

12:                                               ; preds = %2
  %13 = getelementptr inbounds nuw %"class.rocksdb::FileIndexer", ptr %6, i32 0, i32 2
  %14 = load i64, ptr %5, align 8, !tbaa !4
  %15 = call noundef nonnull align 8 dereferenceable(16) ptr @_ZNK7rocksdb10autovectorINS_11FileIndexer10IndexLevelELm8EEixEm(ptr noundef nonnull align 8 dereferenceable(168) %13, i64 noundef %14)
  %16 = getelementptr inbounds nuw %"struct.rocksdb::FileIndexer::IndexLevel", ptr %15, i32 0, i32 0
  %17 = load i64, ptr %16, align 8, !tbaa !41
  store i64 %17, ptr %3, align 8
  br label %18

18:                                               ; preds = %12, %11
  %19 = load i64, ptr %3, align 8
  ret i64 %19
}