; Function Attrs: mustprogress nofree norecurse nosync nounwind willreturn memory(read, inaccessiblemem: none) uwtable
define noundef i64 @_ZNK7rocksdb11FileIndexer14LevelIndexSizeEm(ptr noundef nonnull readonly align 8 captures(none) dereferenceable(192) %0, i64 noundef %1) local_unnamed_addr #5 align 2 {
  %3 = getelementptr inbounds nuw i8, ptr %0, i64 16
  %4 = load i64, ptr %3, align 8, !tbaa !23
  %5 = getelementptr inbounds nuw i8, ptr %0, i64 160
  %6 = getelementptr inbounds nuw i8, ptr %0, i64 168
  %7 = load ptr, ptr %6, align 8, !tbaa !25
  %8 = load ptr, ptr %5, align 8, !tbaa !26
  %9 = ptrtoint ptr %7 to i64
  %10 = ptrtoint ptr %8 to i64
  %11 = sub i64 %9, %10
  %12 = ashr exact i64 %11, 4
  %13 = add i64 %12, %4
  %.not = icmp ult i64 %1, %13
  br i1 %.not, label %14, label %22

14:                                               ; preds = %2
  %15 = icmp ult i64 %1, 8
  %16 = getelementptr inbounds nuw i8, ptr %0, i64 152
  %17 = load ptr, ptr %16, align 8
  %18 = getelementptr inbounds nuw %"struct.rocksdb::FileIndexer::IndexLevel", ptr %17, i64 %1
  %19 = getelementptr %"struct.rocksdb::FileIndexer::IndexLevel", ptr %8, i64 %1
  %20 = getelementptr i8, ptr %19, i64 -128
  %.0.i = select i1 %15, ptr %18, ptr %20
  %21 = load i64, ptr %.0.i, align 8, !tbaa !27
  br label %22

22:                                               ; preds = %2, %14
  %.0 = phi i64 [ %21, %14 ], [ 0, %2 ]
  ret i64 %.0
}